Certificate:
    Data:
        Version: 1 (0x0)
        Serial Number: 1 (0x1)
        Signature Algorithm: sha512WithRSAEncryption
        Issuer: C=FR, ST=France, L=Toulouse, O=Equipe2, OU=IAM, CN=cyberdiploma.corp
        Validity
            Not Before: Jun  1 17:41:32 2023 GMT
            Not After : May 31 17:41:32 2024 GMT
        Subject: C=FR, ST=France, O=Equipe2, OU=IAM, CN=cyberdiploma.corp
        Subject Public Key Info:
            Public Key Algorithm: rsaEncryption
                RSA Public-Key: (2048 bit)
                Modulus:
                    00:97:fa:5f:ac:7b:1c:b9:aa:ea:ce:20:eb:9b:a7:
                    01:99:56:bf:45:e9:13:92:9e:af:6b:28:b8:14:de:
                    2d:28:94:9e:4b:0c:34:0b:7e:6b:c9:ee:c5:6d:b3:
                    55:8a:80:f4:65:da:e7:96:aa:61:cc:30:20:31:1e:
                    a4:bd:4a:6f:29:e4:38:81:10:e7:0a:5e:9d:08:d7:
                    9a:6f:11:e4:12:78:51:1a:34:9c:b8:15:6f:8a:7c:
                    ca:92:75:78:1d:02:ba:fe:90:eb:45:eb:ce:55:15:
                    80:e5:d3:8c:2a:61:65:6d:90:1f:dd:7e:df:da:97:
                    6a:43:ab:0d:9b:fe:b2:78:11:e0:bd:09:26:8f:0b:
                    97:a9:8b:14:0f:c2:2f:22:2d:fb:fe:95:25:e6:1b:
                    c1:d2:0e:46:82:7d:6d:f8:73:ee:f9:e0:69:99:aa:
                    76:7b:7d:ec:13:24:fa:f8:aa:c3:ea:88:ca:10:de:
                    55:6c:ac:f8:e5:09:b8:c7:19:73:42:1d:15:aa:35:
                    8e:2d:02:5f:7e:d2:11:65:f7:34:a6:25:05:9c:56:
                    2b:99:ab:c8:ef:12:3d:1c:26:73:19:cd:f6:4b:9a:
                    4e:f5:89:4b:ed:4e:82:19:ff:a3:32:e4:a5:47:c6:
                    1a:97:22:d6:3e:56:5c:59:e0:73:39:ab:1c:42:67:
                    7e:2d
                Exponent: 65537 (0x10001)
    Signature Algorithm: sha512WithRSAEncryption
         62:91:68:f6:72:bf:b3:64:39:de:73:0a:74:5e:30:71:ec:6e:
         c8:ff:f3:8b:4f:18:10:36:ae:1e:a4:8f:91:70:c8:3c:aa:63:
         65:3a:52:a2:8e:5b:f0:a1:96:55:a9:ab:bf:84:a6:12:95:a9:
         25:52:34:ed:9f:2c:aa:54:c5:49:22:04:c9:5a:01:7d:af:70:
         b3:77:70:e8:d8:a4:3f:50:b2:d3:ce:49:4c:78:48:4a:e7:3d:
         78:a5:00:d9:c4:b9:b8:d4:f4:16:ba:61:33:14:48:db:f0:53:
         64:30:ff:82:06:9a:1f:c5:7e:7c:90:3d:3d:c3:16:6a:38:47:
         3a:1e:cb:cb:16:43:01:02:15:48:b3:eb:b0:8d:65:02:c4:18:
         7d:5b:f5:01:4f:09:ac:51:bd:68:89:70:5b:0f:f0:d5:fe:bc:
         3f:6b:3b:f7:dc:12:4a:df:f0:7b:66:5b:3d:1d:e7:08:fd:d1:
         bb:37:55:b0:88:4a:f9:04:33:db:1e:0f:c8:84:9d:c2:01:02:
         c8:11:1e:a1:80:61:9a:13:60:e1:ff:04:4c:0a:69:86:5f:9a:
         72:7b:34:97:b0:a7:a9:70:3a:6d:77:0a:1f:66:0a:86:2e:7a:
         28:dc:60:a0:7d:9f:d0:71:2b:bb:87:5a:bf:f8:48:2e:c0:73:
         d9:9f:24:6b
-----BEGIN CERTIFICATE-----
MIIDOzCCAiMCAQEwDQYJKoZIhvcNAQENBQAwbTELMAkGA1UEBhMCRlIxDzANBgNV
BAgMBkZyYW5jZTERMA8GA1UEBwwIVG91bG91c2UxEDAOBgNVBAoMB0VxdWlwZTIx
DDAKBgNVBAsMA0lBTTEaMBgGA1UEAwwRY3liZXJkaXBsb21hLmNvcnAwHhcNMjMw
NjAxMTc0MTMyWhcNMjQwNTMxMTc0MTMyWjBaMQswCQYDVQQGEwJGUjEPMA0GA1UE
CAwGRnJhbmNlMRAwDgYDVQQKDAdFcXVpcGUyMQwwCgYDVQQLDANJQU0xGjAYBgNV
BAMMEWN5YmVyZGlwbG9tYS5jb3JwMIIBIjANBgkqhkiG9w0BAQEFAAOCAQ8AMIIB
CgKCAQEAl/pfrHscuarqziDrm6cBmVa/RekTkp6vayi4FN4tKJSeSww0C35rye7F
bbNVioD0ZdrnlqphzDAgMR6kvUpvKeQ4gRDnCl6dCNeabxHkEnhRGjScuBVvinzK
knV4HQK6/pDrRevOVRWA5dOMKmFlbZAf3X7f2pdqQ6sNm/6yeBHgvQkmjwuXqYsU
D8IvIi37/pUl5hvB0g5Ggn1t+HPu+eBpmap2e33sEyT6+KrD6ojKEN5VbKz45Qm4
xxlzQh0VqjWOLQJfftIRZfc0piUFnFYrmavI7xI9HCZzGc32S5pO9YlL7U6CGf+j
MuSlR8YalyLWPlZcWeBzOascQmd+LQIDAQABMA0GCSqGSIb3DQEBDQUAA4IBAQBi
kWj2cr+zZDnecwp0XjBx7G7I//OLTxgQNq4epI+RcMg8qmNlOlKijlvwoZZVqau/
hKYSlaklUjTtnyyqVMVJIgTJWgF9r3Czd3Do2KQ/ULLTzklMeEhK5z14pQDZxLm4
1PQWumEzFEjb8FNkMP+CBpofxX58kD09wxZqOEc6HsvLFkMBAhVIs+uwjWUCxBh9
W/UBTwmsUb1oiXBbD/DV/rw/azv33BJK3/B7Zls9HecI/dG7N1WwiEr5BDPbHg/I
hJ3CAQLIER6hgGGaE2Dh/wRMCmmGX5pyezSXsKepcDptdwofZgqGLnoo3GCgfZ/Q
cSu7h1q/+EguwHPZnyRr
-----END CERTIFICATE-----
